target datalayout = "e-m:e-p270:32:32-p271:32:32-p272:64:64-i64:64-i128:128-f80:128-n8:16:32:64-S128"
target triple = "x86_64-pc-linux-gnu"

%struct.X509_POLICY_DATA_st = type { i32, ptr, ptr, ptr }

; Function Attrs: nounwind uwtable
define internal i32 @policy_data_cmp(ptr noundef %0, ptr noundef %1) #0 {
  %3 = alloca ptr, align 8
  %4 = alloca ptr, align 8
  store ptr %0, ptr %3, align 8, !tbaa !75
  store ptr %1, ptr %4, align 8, !tbaa !75
  %5 = load ptr, ptr %3, align 8, !tbaa !75
  %6 = load ptr, ptr %5, align 8, !tbaa !66
  %7 = getelementptr inbounds nuw %struct.X509_POLICY_DATA_st, ptr %6, i32 0, i32 1
  %8 = load ptr, ptr %7, align 8, !tbaa !62
  %9 = load ptr, ptr %4, align 8, !tbaa !75
  %10 = load ptr, ptr %9, align 8, !tbaa !66
  %11 = getelementptr inbounds nuw %struct.X509_POLICY_DATA_st, ptr %10, i32 0, i32 1
  %12 = load ptr, ptr %11, align 8, !tbaa !62
  %13 = call i32 @OBJ_cmp(ptr noundef %8, ptr noundef %12)
  ret i32 %13
}