; Function Attrs: nounwind uwtable
define internal i32 @policy_data_cmp(ptr noundef readonly captures(none) %0, ptr noundef readonly captures(none) %1) #0 {
  %3 = load ptr, ptr %0, align 8, !tbaa !54
  %4 = getelementptr inbounds nuw i8, ptr %3, i64 8
  %5 = load ptr, ptr %4, align 8, !tbaa !47
  %6 = load ptr, ptr %1, align 8, !tbaa !54
  %7 = getelementptr inbounds nuw i8, ptr %6, i64 8
  %8 = load ptr, ptr %7, align 8, !tbaa !47
  %9 = tail call i32 @OBJ_cmp(ptr noundef %5, ptr noundef %8) #4
  ret i32 %9
}